target datalayout = "e-m:e-p270:32:32-p271:32:32-p272:64:64-i64:64-i128:128-f80:128-n8:16:32:64-S128"
target triple = "x86_64-pc-linux-gnu"

%struct._lv_timer_t = type { i32, i32, ptr, ptr, i32, i8 }

; Function Attrs: nounwind uwtable
define void @lv_timer_set_auto_delete(ptr noundef %0, i1 noundef zeroext %1) #0 {
  %3 = alloca ptr, align 8
  %4 = alloca i8, align 1
  store ptr %0, ptr %3, align 8, !tbaa !22
  %5 = zext i1 %1 to i8
  store i8 %5, ptr %4, align 1, !tbaa !3
  br label %6

6:                                                ; preds = %2
  %7 = load ptr, ptr %3, align 8, !tbaa !22
  %8 = icmp ne ptr %7, null
  br i1 %8, label %13, label %9

9:                                                ; preds = %6
  br label %10

10:                                               ; preds = %9
  br label %11

11:                                               ; preds = %10
  br label %12

12:                                               ; preds = %11, %12
  br label %12

13:                                               ; preds = %6
  br label %14

14:                                               ; preds = %13
  %15 = load i8, ptr %4, align 1, !tbaa !3, !range !7, !noundef !8
  %16 = trunc i8 %15 to i1
  %17 = zext i1 %16 to i32
  %18 = load ptr, ptr %3, align 8, !tbaa !22
  %19 = getelementptr inbounds nuw %struct._lv_timer_t, ptr %18, i32 0, i32 5
  %20 = trunc i32 %17 to i8
  %21 = load i8, ptr %19, align 4
  %22 = and i8 %20, 1
  %23 = shl i8 %22, 1
  %24 = and i8 %21, -3
  %25 = or i8 %24, %23
  store i8 %25, ptr %19, align 4
  ret void
}